; Function Attrs: mustprogress uwtable
define dso_local void @_ZN5ImGui13PushStyleVarXEif(i32 noundef %0, float noundef %1) local_unnamed_addr #12 {
  %3 = alloca %struct.ImGuiStyleMod, align 4
  %4 = sext i32 %0 to i64
  %5 = getelementptr inbounds [33 x %struct.ImGuiDataVarInfo], ptr @_ZL13GStyleVarInfo, i64 0, i64 %4
  %6 = getelementptr inbounds nuw i8, ptr %5, i64 4
  %7 = load i32, ptr %6, align 4, !tbaa !436
  %.not9 = icmp eq i32 %7, 2
  br i1 %.not9, label %10, label %8

8:                                                ; preds = %2
  %9 = tail call noundef zeroext i1 @_ZN5ImGui8ErrorLogEPKc(ptr noundef nonnull @.str.12)
  br label %20

10:                                               ; preds = %2
  %11 = load ptr, ptr @GImGui, align 8, !tbaa !211
  %12 = getelementptr inbounds nuw i8, ptr %11, i64 3016
  %13 = getelementptr inbounds nuw i8, ptr %5, i64 8
  %14 = load i32, ptr %13, align 4, !tbaa !438
  %15 = zext i32 %14 to i64
  %16 = getelementptr inbounds nuw i8, ptr %12, i64 %15
  %17 = getelementptr inbounds nuw i8, ptr %11, i64 7648
  call void @llvm.lifetime.start.p0(i64 12, ptr nonnull %3) #44
  %.sroa.0.0.copyload = load <2 x float>, ptr %16, align 4
  store i32 %0, ptr %3, align 4, !tbaa !439
  %.sroa.0.0.vec.extract.i = extractelement <2 x float> %.sroa.0.0.copyload, i64 0
  %18 = getelementptr inbounds nuw i8, ptr %3, i64 4
  store float %.sroa.0.0.vec.extract.i, ptr %18, align 4, !tbaa !206
  %.sroa.0.4.vec.extract.i = extractelement <2 x float> %.sroa.0.0.copyload, i64 1
  %19 = getelementptr inbounds nuw i8, ptr %3, i64 8
  store float %.sroa.0.4.vec.extract.i, ptr %19, align 4, !tbaa !206
  call void @_ZN8ImVectorI13ImGuiStyleModE9push_backERKS0_(ptr noundef nonnull align 8 dereferenceable(16) %17, ptr noundef nonnull align 4 dereferenceable(12) %3)
  call void @llvm.lifetime.end.p0(i64 12, ptr nonnull %3) #44
  store float %1, ptr %16, align 4, !tbaa !49
  br label %20

20:                                               ; preds = %10, %8
  ret void
}